; Function Attrs: nounwind sspstrong uwtable
define internal fastcc void @uhci_resume(ptr noundef %opaque) unnamed_addr #0 {
entry:
  %tobool.not = icmp eq ptr %opaque, null
  br i1 %tobool.not, label %if.end9, label %if.end

if.end:                                           ; preds = %entry
  %cmd = getelementptr inbounds nuw i8, ptr %opaque, i64 3072
  %0 = load i16, ptr %cmd, align 16
  %1 = and i16 %0, 8
  %tobool1.not = icmp eq i16 %1, 0
  br i1 %tobool1.not, label %if.end9, label %if.then2

if.then2:                                         ; preds = %if.end
  %or = or i16 %0, 16
  store i16 %or, ptr %cmd, align 16
  %status = getelementptr inbounds nuw i8, ptr %opaque, i64 3074
  %2 = load i16, ptr %status, align 2
  %3 = or i16 %2, 4
  store i16 %3, ptr %status, align 2
  %status2.i = getelementptr inbounds nuw i8, ptr %opaque, i64 3085
  %4 = load i8, ptr %status2.i, align 1
  %5 = and i8 %4, 1
  %tobool.not.i = icmp eq i8 %5, 0
  br i1 %tobool.not.i, label %lor.lhs.false.i, label %land.lhs.true.i

land.lhs.true.i:                                  ; preds = %if.then2
  %intr.i = getelementptr inbounds nuw i8, ptr %opaque, i64 3076
  %6 = load i16, ptr %intr.i, align 4
  %7 = and i16 %6, 4
  %tobool3.not.i = icmp eq i16 %7, 0
  br i1 %tobool3.not.i, label %lor.lhs.false.i, label %if.then.i

lor.lhs.false.i:                                  ; preds = %land.lhs.true.i, %if.then2
  %8 = and i8 %4, 2
  %tobool7.not.i = icmp eq i8 %8, 0
  br i1 %tobool7.not.i, label %lor.lhs.false13.i, label %land.lhs.true8.i

land.lhs.true8.i:                                 ; preds = %lor.lhs.false.i
  %intr9.i = getelementptr inbounds nuw i8, ptr %opaque, i64 3076
  %9 = load i16, ptr %intr9.i, align 4
  %10 = and i16 %9, 8
  %tobool12.not.i = icmp eq i16 %10, 0
  br i1 %tobool12.not.i, label %lor.lhs.false13.i, label %if.then.i

lor.lhs.false13.i:                                ; preds = %land.lhs.true8.i, %lor.lhs.false.i
  %11 = and i16 %2, 2
  %tobool16.not.i = icmp eq i16 %11, 0
  %intr28.i.phi.trans.insert = getelementptr inbounds nuw i8, ptr %opaque, i64 3076
  %.pre = load i16, ptr %intr28.i.phi.trans.insert, align 4
  %12 = and i16 %.pre, 1
  %tobool21.not.i = icmp eq i16 %12, 0
  %or.cond = select i1 %tobool16.not.i, i1 true, i1 %tobool21.not.i
  br i1 %or.cond, label %land.lhs.true27.i, label %if.then.i

land.lhs.true27.i:                                ; preds = %lor.lhs.false13.i
  %13 = and i16 %.pre, 2
  %14 = and i16 %2, 24
  %15 = or disjoint i16 %13, %14
  %or.cond11.i = icmp eq i16 %15, 0
  br i1 %or.cond11.i, label %uhci_update_irq.exit, label %if.then.i

if.then.i:                                        ; preds = %lor.lhs.false13.i, %land.lhs.true27.i, %land.lhs.true8.i, %land.lhs.true.i
  br label %uhci_update_irq.exit

uhci_update_irq.exit:                             ; preds = %land.lhs.true27.i, %if.then.i
  %level.0.i = phi i32 [ 1, %if.then.i ], [ 0, %land.lhs.true27.i ]
  %irq.i = getelementptr inbounds nuw i8, ptr %opaque, i64 3288
  %16 = load ptr, ptr %irq.i, align 8
  tail call void @qemu_set_irq(ptr noundef %16, i32 noundef %level.0.i) #11
  br label %if.end9

if.end9:                                          ; preds = %entry, %uhci_update_irq.exit, %if.end
  ret void
}